target datalayout = "e-m:e-p270:32:32-p271:32:32-p272:64:64-i64:64-i128:128-f80:128-n8:16:32:64-S128"
target triple = "x86_64-pc-linux-gnu"

@.str.47 = private unnamed_addr constant [5 x i8] c"HOME\00", align 1
@.str.48 = private unnamed_addr constant [15 x i8] c"FFMPEG_DATADIR\00", align 1
@.str.49 = private unnamed_addr constant [24 x i8] c"/usr/local/share/ffmpeg\00", align 1
@.str.50 = private unnamed_addr constant [2 x i8] c"r\00", align 1
@.str.51 = private unnamed_addr constant [17 x i8] c"%s%s/%s.ffpreset\00", align 1
@.str.52 = private unnamed_addr constant [1 x i8] zeroinitializer, align 1
@.str.53 = private unnamed_addr constant [9 x i8] c"/.ffmpeg\00", align 1
@.str.54 = private unnamed_addr constant [20 x i8] c"%s%s/%s-%s.ffpreset\00", align 1

; Function Attrs: inlinehint nounwind uwtable
define internal void @freeenv_utf8(ptr noundef %0) #4 {
  %2 = alloca ptr, align 8
  store ptr %0, ptr %2, align 8, !tbaa !10
  ret void
}

; Function Attrs: inlinehint nounwind uwtable
define internal ptr @fopen_utf8(ptr noundef %0, ptr noundef %1) #4 {
  %3 = alloca ptr, align 8
  %4 = alloca ptr, align 8
  store ptr %0, ptr %3, align 8, !tbaa !10
  store ptr %1, ptr %4, align 8, !tbaa !10
  %5 = load ptr, ptr %3, align 8, !tbaa !10
  %6 = load ptr, ptr %4, align 8, !tbaa !10
  %7 = call noalias ptr @fopen64(ptr noundef %5, ptr noundef %6)
  ret ptr %7
}

; Function Attrs: inlinehint nounwind uwtable
define internal ptr @getenv_utf8(ptr noundef %0) #4 {
  %2 = alloca ptr, align 8
  store ptr %0, ptr %2, align 8, !tbaa !10
  %3 = load ptr, ptr %2, align 8, !tbaa !10
  %4 = call ptr @getenv(ptr noundef %3) #11
  ret ptr %4
}

; Function Attrs: nounwind uwtable
define ptr @get_preset_file(ptr noundef %0, i64 noundef %1, ptr noundef %2, i32 noundef %3, ptr noundef %4) #0 {
  %6 = alloca ptr, align 8
  %7 = alloca i64, align 8
  %8 = alloca ptr, align 8
  %9 = alloca i32, align 4
  %10 = alloca ptr, align 8
  %11 = alloca ptr, align 8
  %12 = alloca i32, align 4
  %13 = alloca ptr, align 8
  %14 = alloca ptr, align 8
  %15 = alloca [3 x ptr], align 16
  store ptr %0, ptr %6, align 8, !tbaa !10
  store i64 %1, ptr %7, align 8, !tbaa !51
  store ptr %2, ptr %8, align 8, !tbaa !10
  store i32 %3, ptr %9, align 4, !tbaa !8
  store ptr %4, ptr %10, align 8, !tbaa !10
  call void @llvm.lifetime.start.p0(i64 8, ptr %11) #11
  store ptr null, ptr %11, align 8, !tbaa !14
  call void @llvm.lifetime.start.p0(i64 4, ptr %12) #11
  call void @llvm.lifetime.start.p0(i64 8, ptr %13) #11
  %16 = call ptr @getenv_utf8(ptr noundef @.str.47)
  store ptr %16, ptr %13, align 8, !tbaa !10
  call void @llvm.lifetime.start.p0(i64 8, ptr %14) #11
  %17 = call ptr @getenv_utf8(ptr noundef @.str.48)
  store ptr %17, ptr %14, align 8, !tbaa !10
  call void @llvm.lifetime.start.p0(i64 24, ptr %15) #11
  %18 = load ptr, ptr %14, align 8, !tbaa !10
  store ptr %18, ptr %15, align 8, !tbaa !10
  %19 = getelementptr inbounds ptr, ptr %15, i64 1
  %20 = load ptr, ptr %13, align 8, !tbaa !10
  store ptr %20, ptr %19, align 8, !tbaa !10
  %21 = getelementptr inbounds ptr, ptr %15, i64 2
  store ptr @.str.49, ptr %21, align 8, !tbaa !10
  %22 = load i32, ptr %9, align 4, !tbaa !8
  %23 = icmp ne i32 %22, 0
  br i1 %23, label %24, label %31

24:                                               ; preds = %5
  %25 = load ptr, ptr %6, align 8, !tbaa !10
  %26 = load ptr, ptr %8, align 8, !tbaa !10
  %27 = load i64, ptr %7, align 8, !tbaa !51
  %28 = call i64 @av_strlcpy(ptr noundef %25, ptr noundef %26, i64 noundef %27)
  %29 = load ptr, ptr %6, align 8, !tbaa !10
  %30 = call ptr @fopen_utf8(ptr noundef %29, ptr noundef @.str.50)
  store ptr %30, ptr %11, align 8, !tbaa !14
  br label %87

31:                                               ; preds = %5
  store i32 0, ptr %12, align 4, !tbaa !8
  br label %32

32:                                               ; preds = %83, %31
  %33 = load i32, ptr %12, align 4, !tbaa !8
  %34 = icmp slt i32 %33, 3
  br i1 %34, label %35, label %39

35:                                               ; preds = %32
  %36 = load ptr, ptr %11, align 8, !tbaa !14
  %37 = icmp ne ptr %36, null
  %38 = xor i1 %37, true
  br label %39

39:                                               ; preds = %35, %32
  %40 = phi i1 [ false, %32 ], [ %38, %35 ]
  br i1 %40, label %41, label %86

41:                                               ; preds = %39
  %42 = load i32, ptr %12, align 4, !tbaa !8
  %43 = sext i32 %42 to i64
  %44 = getelementptr inbounds [3 x ptr], ptr %15, i64 0, i64 %43
  %45 = load ptr, ptr %44, align 8, !tbaa !10
  %46 = icmp ne ptr %45, null
  br i1 %46, label %48, label %47

47:                                               ; preds = %41
  br label %83

48:                                               ; preds = %41
  %49 = load ptr, ptr %6, align 8, !tbaa !10
  %50 = load i64, ptr %7, align 8, !tbaa !51
  %51 = load i32, ptr %12, align 4, !tbaa !8
  %52 = sext i32 %51 to i64
  %53 = getelementptr inbounds [3 x ptr], ptr %15, i64 0, i64 %52
  %54 = load ptr, ptr %53, align 8, !tbaa !10
  %55 = load i32, ptr %12, align 4, !tbaa !8
  %56 = icmp ne i32 %55, 1
  %57 = select i1 %56, ptr @.str.52, ptr @.str.53
  %58 = load ptr, ptr %8, align 8, !tbaa !10
  %59 = call i32 (ptr, i64, ptr, ...) @snprintf(ptr noundef %49, i64 noundef %50, ptr noundef @.str.51, ptr noundef %54, ptr noundef %57, ptr noundef %58) #11
  %60 = load ptr, ptr %6, align 8, !tbaa !10
  %61 = call ptr @fopen_utf8(ptr noundef %60, ptr noundef @.str.50)
  store ptr %61, ptr %11, align 8, !tbaa !14
  %62 = load ptr, ptr %11, align 8, !tbaa !14
  %63 = icmp ne ptr %62, null
  br i1 %63, label %82, label %64

64:                                               ; preds = %48
  %65 = load ptr, ptr %10, align 8, !tbaa !10
  %66 = icmp ne ptr %65, null
  br i1 %66, label %67, label %82

67:                                               ; preds = %64
  %68 = load ptr, ptr %6, align 8, !tbaa !10
  %69 = load i64, ptr %7, align 8, !tbaa !51
  %70 = load i32, ptr %12, align 4, !tbaa !8
  %71 = sext i32 %70 to i64
  %72 = getelementptr inbounds [3 x ptr], ptr %15, i64 0, i64 %71
  %73 = load ptr, ptr %72, align 8, !tbaa !10
  %74 = load i32, ptr %12, align 4, !tbaa !8
  %75 = icmp ne i32 %74, 1
  %76 = select i1 %75, ptr @.str.52, ptr @.str.53
  %77 = load ptr, ptr %10, align 8, !tbaa !10
  %78 = load ptr, ptr %8, align 8, !tbaa !10
  %79 = call i32 (ptr, i64, ptr, ...) @snprintf(ptr noundef %68, i64 noundef %69, ptr noundef @.str.54, ptr noundef %73, ptr noundef %76, ptr noundef %77, ptr noundef %78) #11
  %80 = load ptr, ptr %6, align 8, !tbaa !10
  %81 = call ptr @fopen_utf8(ptr noundef %80, ptr noundef @.str.50)
  store ptr %81, ptr %11, align 8, !tbaa !14
  br label %82

82:                                               ; preds = %67, %64, %48
  br label %83

83:                                               ; preds = %82, %47
  %84 = load i32, ptr %12, align 4, !tbaa !8
  %85 = add nsw i32 %84, 1
  store i32 %85, ptr %12, align 4, !tbaa !8
  br label %32, !llvm.loop !118

86:                                               ; preds = %39
  br label %87

87:                                               ; preds = %86, %24
  %88 = load ptr, ptr %14, align 8, !tbaa !10
  call void @freeenv_utf8(ptr noundef %88)
  %89 = load ptr, ptr %13, align 8, !tbaa !10
  call void @freeenv_utf8(ptr noundef %89)
  %90 = load ptr, ptr %11, align 8, !tbaa !14
  call void @llvm.lifetime.end.p0(i64 24, ptr %15) #11
  call void @llvm.lifetime.end.p0(i64 8, ptr %14) #11
  call void @llvm.lifetime.end.p0(i64 8, ptr %13) #11
  call void @llvm.lifetime.end.p0(i64 4, ptr %12) #11
  call void @llvm.lifetime.end.p0(i64 8, ptr %11) #11
  ret ptr %90
}