; Function Attrs: nounwind uwtable
define noundef ptr @get_preset_file(ptr noundef %0, i64 noundef %1, ptr noundef %2, i32 noundef %3, ptr noundef %4) local_unnamed_addr #0 {
  %6 = alloca [3 x ptr], align 16
  %7 = tail call noundef ptr @getenv(ptr noundef nonnull @.str.47) #15
  %8 = tail call noundef ptr @getenv(ptr noundef nonnull @.str.48) #15
  call void @llvm.lifetime.start.p0(i64 24, ptr nonnull %6) #15
  store ptr %8, ptr %6, align 16, !tbaa !9
  %9 = getelementptr inbounds nuw i8, ptr %6, i64 8
  store ptr %7, ptr %9, align 8, !tbaa !9
  %10 = getelementptr inbounds nuw i8, ptr %6, i64 16
  store ptr @.str.49, ptr %10, align 16, !tbaa !9
  %.not = icmp eq i32 %3, 0
  br i1 %.not, label %.preheader, label %20

.preheader:                                       ; preds = %5
  %.not36 = icmp eq ptr %4, null
  br i1 %.not36, label %.preheader.split.us, label %.preheader.split

.preheader.split.us:                              ; preds = %.preheader, %17
  %indvars.iv39 = phi i64 [ %indvars.iv.next40, %17 ], [ 0, %.preheader ]
  %11 = getelementptr inbounds nuw [3 x ptr], ptr %6, i64 0, i64 %indvars.iv39
  %12 = load ptr, ptr %11, align 8, !tbaa !9
  %.not33.us = icmp eq ptr %12, null
  br i1 %.not33.us, label %17, label %13

13:                                               ; preds = %.preheader.split.us
  %.not34.us = icmp eq i64 %indvars.iv39, 1
  %14 = select i1 %.not34.us, ptr @.str.53, ptr @.str.52
  %15 = tail call i32 (ptr, i64, ptr, ...) @snprintf(ptr noundef %0, i64 noundef %1, ptr noundef nonnull @.str.51, ptr noundef nonnull %12, ptr noundef nonnull %14, ptr noundef %2) #15
  %16 = tail call noalias noundef ptr @fopen64(ptr noundef readonly %0, ptr noundef nonnull @.str.50)
  br label %17

17:                                               ; preds = %13, %.preheader.split.us
  %.2.us = phi ptr [ %16, %13 ], [ null, %.preheader.split.us ]
  %indvars.iv.next40 = add nuw nsw i64 %indvars.iv39, 1
  %18 = icmp samesign ult i64 %indvars.iv39, 2
  %.not32.us = icmp eq ptr %.2.us, null
  %19 = and i1 %18, %.not32.us
  br i1 %19, label %.preheader.split.us, label %.loopexit, !llvm.loop !97

20:                                               ; preds = %5
  %21 = tail call i64 @av_strlcpy(ptr noundef %0, ptr noundef %2, i64 noundef %1) #15
  %22 = tail call noalias noundef ptr @fopen64(ptr noundef readonly %0, ptr noundef nonnull @.str.50)
  br label %.loopexit

.preheader.split:                                 ; preds = %.preheader, %33
  %indvars.iv = phi i64 [ %indvars.iv.next, %33 ], [ 0, %.preheader ]
  %23 = getelementptr inbounds nuw [3 x ptr], ptr %6, i64 0, i64 %indvars.iv
  %24 = load ptr, ptr %23, align 8, !tbaa !9
  %.not33 = icmp eq ptr %24, null
  br i1 %.not33, label %33, label %25

25:                                               ; preds = %.preheader.split
  %.not34 = icmp eq i64 %indvars.iv, 1
  %26 = select i1 %.not34, ptr @.str.53, ptr @.str.52
  %27 = tail call i32 (ptr, i64, ptr, ...) @snprintf(ptr noundef %0, i64 noundef %1, ptr noundef nonnull @.str.51, ptr noundef nonnull %24, ptr noundef nonnull %26, ptr noundef %2) #15
  %28 = tail call noalias noundef ptr @fopen64(ptr noundef readonly %0, ptr noundef nonnull @.str.50)
  %29 = icmp eq ptr %28, null
  br i1 %29, label %30, label %.loopexit

30:                                               ; preds = %25
  %31 = tail call i32 (ptr, i64, ptr, ...) @snprintf(ptr noundef %0, i64 noundef %1, ptr noundef nonnull @.str.54, ptr noundef nonnull %24, ptr noundef nonnull %26, ptr noundef nonnull %4, ptr noundef %2) #15
  %32 = tail call noalias noundef ptr @fopen64(ptr noundef readonly %0, ptr noundef nonnull @.str.50)
  br label %33

33:                                               ; preds = %30, %.preheader.split
  %.2 = phi ptr [ %32, %30 ], [ null, %.preheader.split ]
  %indvars.iv.next = add nuw nsw i64 %indvars.iv, 1
  %34 = icmp samesign ult i64 %indvars.iv, 2
  %.not32 = icmp eq ptr %.2, null
  %35 = and i1 %34, %.not32
  br i1 %35, label %.preheader.split, label %.loopexit, !llvm.loop !97

.loopexit:                                        ; preds = %25, %33, %17, %20
  %.0 = phi ptr [ %22, %20 ], [ %.2.us, %17 ], [ %28, %25 ], [ %.2, %33 ]
  call void @llvm.lifetime.end.p0(i64 24, ptr nonnull %6) #15
  ret ptr %.0
}